target datalayout = "e-m:e-p270:32:32-p271:32:32-p272:64:64-i64:64-i128:128-f80:128-n8:16:32:64-S128"
target triple = "x86_64-pc-linux-gnu"

@.str.23 = private unnamed_addr constant [1 x i8] zeroinitializer, align 1

; Function Attrs: null_pointer_is_valid sspstrong uwtable
define internal ptr @get_string(ptr noundef %0, i32 noundef %1, i32 noundef %2) #0 {
  %4 = alloca ptr, align 8
  %5 = alloca ptr, align 8
  %6 = alloca i32, align 4
  %7 = alloca i32, align 4
  %8 = alloca ptr, align 8
  %9 = alloca i32, align 4
  %10 = alloca i16, align 2
  %11 = alloca i32, align 4
  %12 = alloca i32, align 4
  %13 = alloca i32, align 4
  store ptr %0, ptr %5, align 8
  store i32 %1, ptr %6, align 4
  store i32 %2, ptr %7, align 4
  call void @llvm.lifetime.start.p0(i64 8, ptr %8) #13
  call void @llvm.lifetime.start.p0(i64 4, ptr %9) #13
  call void @llvm.lifetime.start.p0(i64 2, ptr %10) #13
  call void @llvm.lifetime.start.p0(i64 4, ptr %11) #13
  store i32 0, ptr %11, align 4
  call void @llvm.lifetime.start.p0(i64 4, ptr %12) #13
  %14 = load i32, ptr %7, align 4
  %15 = icmp ult i32 %14, 1024
  br i1 %15, label %16, label %18

16:                                               ; preds = %3
  %17 = load i32, ptr %7, align 4
  br label %19

18:                                               ; preds = %3
  br label %19

19:                                               ; preds = %18, %16
  %20 = phi i32 [ %17, %16 ], [ 1024, %18 ]
  store i32 %20, ptr %12, align 4
  %21 = load ptr, ptr %5, align 8
  %22 = load i32, ptr %6, align 4
  %23 = call i32 @tvb_captured_length_remaining(ptr noundef %21, i32 noundef %22)
  store i32 %23, ptr %11, align 4
  %24 = load i32, ptr %7, align 4
  %25 = load i32, ptr %11, align 4
  %26 = icmp sgt i32 %24, %25
  br i1 %26, label %27, label %28

27:                                               ; preds = %19
  call void @except_throw(i64 noundef 1, i64 noundef 3, ptr noundef null) #15
  unreachable

28:                                               ; preds = %19
  %29 = load i32, ptr %7, align 4
  %30 = icmp eq i32 %29, 0
  br i1 %30, label %31, label %32

31:                                               ; preds = %28
  store ptr @.str.23, ptr %4, align 8
  store i32 1, ptr %13, align 4
  br label %116

32:                                               ; preds = %28
  %33 = call ptr @wmem_packet_scope()
  %34 = load i32, ptr %12, align 4
  %35 = add i32 %34, 1
  %36 = sext i32 %35 to i64
  %37 = call noalias ptr @wmem_alloc(ptr noundef %33, i64 noundef %36) #16
  store ptr %37, ptr %8, align 8
  %38 = load ptr, ptr %8, align 8
  %39 = getelementptr i8, ptr %38, i64 0
  store i8 0, ptr %39, align 1
  store i32 0, ptr %9, align 4
  br label %40

40:                                               ; preds = %103, %32
  %41 = load i32, ptr %9, align 4
  %42 = load i32, ptr %7, align 4
  %43 = icmp slt i32 %41, %42
  br i1 %43, label %44, label %106

44:                                               ; preds = %40
  %45 = load ptr, ptr %5, align 8
  %46 = load i32, ptr %6, align 4
  %47 = call zeroext i8 @tvb_get_uint8(ptr noundef %45, i32 noundef %46)
  %48 = zext i8 %47 to i16
  store i16 %48, ptr %10, align 2
  %49 = load i16, ptr %10, align 2
  %50 = zext i16 %49 to i32
  %51 = icmp slt i32 %50, 32
  br i1 %51, label %56, label %52

52:                                               ; preds = %44
  %53 = load i16, ptr %10, align 2
  %54 = zext i16 %53 to i32
  %55 = icmp sgt i32 %54, 126
  br i1 %55, label %56, label %75

56:                                               ; preds = %52, %44
  %57 = load i16, ptr %10, align 2
  %58 = zext i16 %57 to i32
  %59 = icmp ne i32 %58, 0
  br i1 %59, label %60, label %69

60:                                               ; preds = %56
  store i16 46, ptr %10, align 2
  %61 = load i16, ptr %10, align 2
  %62 = zext i16 %61 to i32
  %63 = and i32 %62, 255
  %64 = trunc i32 %63 to i8
  %65 = load ptr, ptr %8, align 8
  %66 = load i32, ptr %9, align 4
  %67 = sext i32 %66 to i64
  %68 = getelementptr i8, ptr %65, i64 %67
  store i8 %64, ptr %68, align 1
  br label %74

69:                                               ; preds = %56
  %70 = load i32, ptr %9, align 4
  %71 = add i32 %70, -1
  store i32 %71, ptr %9, align 4
  %72 = load i32, ptr %7, align 4
  %73 = add i32 %72, -1
  store i32 %73, ptr %7, align 4
  br label %74

74:                                               ; preds = %69, %60
  br label %84

75:                                               ; preds = %52
  %76 = load i16, ptr %10, align 2
  %77 = zext i16 %76 to i32
  %78 = and i32 %77, 255
  %79 = trunc i32 %78 to i8
  %80 = load ptr, ptr %8, align 8
  %81 = load i32, ptr %9, align 4
  %82 = sext i32 %81 to i64
  %83 = getelementptr i8, ptr %80, i64 %82
  store i8 %79, ptr %83, align 1
  br label %84

84:                                               ; preds = %75, %74
  %85 = load i32, ptr %6, align 4
  %86 = add i32 %85, 1
  store i32 %86, ptr %6, align 4
  %87 = load i32, ptr %11, align 4
  %88 = add i32 %87, -1
  store i32 %88, ptr %11, align 4
  %89 = load i32, ptr %11, align 4
  %90 = icmp eq i32 %89, 1
  br i1 %90, label %91, label %98

91:                                               ; preds = %84
  %92 = load ptr, ptr %8, align 8
  %93 = load i32, ptr %9, align 4
  %94 = add i32 %93, 1
  %95 = sext i32 %94 to i64
  %96 = getelementptr i8, ptr %92, i64 %95
  store i8 0, ptr %96, align 1
  %97 = load ptr, ptr %8, align 8
  store ptr %97, ptr %4, align 8
  store i32 1, ptr %13, align 4
  br label %116

98:                                               ; preds = %84
  %99 = load i32, ptr %9, align 4
  %100 = icmp sge i32 %99, 1023
  br i1 %100, label %101, label %102

101:                                              ; preds = %98
  br label %106

102:                                              ; preds = %98
  br label %103

103:                                              ; preds = %102
  %104 = load i32, ptr %9, align 4
  %105 = add i32 %104, 1
  store i32 %105, ptr %9, align 4
  br label %40, !llvm.loop !76

106:                                              ; preds = %101, %40
  %107 = load i32, ptr %9, align 4
  %108 = icmp slt i32 %107, 0
  br i1 %108, label %109, label %110

109:                                              ; preds = %106
  store i32 0, ptr %9, align 4
  br label %110

110:                                              ; preds = %109, %106
  %111 = load ptr, ptr %8, align 8
  %112 = load i32, ptr %9, align 4
  %113 = sext i32 %112 to i64
  %114 = getelementptr i8, ptr %111, i64 %113
  store i8 0, ptr %114, align 1
  %115 = load ptr, ptr %8, align 8
  store ptr %115, ptr %4, align 8
  store i32 1, ptr %13, align 4
  br label %116

116:                                              ; preds = %110, %91, %31
  call void @llvm.lifetime.end.p0(i64 4, ptr %12) #13
  call void @llvm.lifetime.end.p0(i64 4, ptr %11) #13
  call void @llvm.lifetime.end.p0(i64 2, ptr %10) #13
  call void @llvm.lifetime.end.p0(i64 4, ptr %9) #13
  call void @llvm.lifetime.end.p0(i64 8, ptr %8) #13
  %117 = load ptr, ptr %4, align 8
  ret ptr %117
}