; Function Attrs: null_pointer_is_valid sspstrong uwtable
define internal fastcc noundef ptr @get_string(ptr noundef %0, i32 noundef %1, i32 noundef %2) unnamed_addr #0 {
  %4 = tail call i32 @llvm.umin.i32(i32 %2, i32 1024)
  %5 = tail call i32 @tvb_captured_length_remaining(ptr noundef %0, i32 noundef %1)
  %6 = icmp sgt i32 %2, %5
  br i1 %6, label %7, label %8

7:                                                ; preds = %3
  tail call void @except_throw(i64 noundef 1, i64 noundef 3, ptr noundef null) #17
  unreachable

8:                                                ; preds = %3
  %9 = icmp eq i32 %2, 0
  br i1 %9, label %43, label %10

10:                                               ; preds = %8
  %11 = tail call ptr @wmem_packet_scope()
  %12 = add nuw nsw i32 %4, 1
  %13 = zext nneg i32 %12 to i64
  %14 = tail call noalias ptr @wmem_alloc(ptr noundef %11, i64 noundef %13) #15
  store i8 0, ptr %14, align 1
  %15 = icmp sgt i32 %2, 0
  br i1 %15, label %.lr.ph, label %._crit_edge

.lr.ph:                                           ; preds = %10, %38
  %.03850 = phi i32 [ %30, %38 ], [ %5, %10 ]
  %.03949 = phi i32 [ %39, %38 ], [ 0, %10 ]
  %.04048 = phi i32 [ %29, %38 ], [ %1, %10 ]
  %.04147 = phi i32 [ %.142, %38 ], [ %2, %10 ]
  %16 = tail call zeroext i8 @tvb_get_uint8(ptr noundef %0, i32 noundef %.04048)
  %17 = add i8 %16, -127
  %or.cond = icmp ult i8 %17, -95
  br i1 %or.cond, label %18, label %25

18:                                               ; preds = %.lr.ph
  %.not = icmp eq i8 %16, 0
  br i1 %.not, label %22, label %19

19:                                               ; preds = %18
  %20 = sext i32 %.03949 to i64
  %21 = getelementptr i8, ptr %14, i64 %20
  store i8 46, ptr %21, align 1
  br label %28

22:                                               ; preds = %18
  %23 = add nsw i32 %.03949, -1
  %24 = add nsw i32 %.04147, -1
  br label %28

25:                                               ; preds = %.lr.ph
  %26 = sext i32 %.03949 to i64
  %27 = getelementptr i8, ptr %14, i64 %26
  store i8 %16, ptr %27, align 1
  br label %28

28:                                               ; preds = %19, %22, %25
  %.142 = phi i32 [ %.04147, %19 ], [ %24, %22 ], [ %.04147, %25 ]
  %.2 = phi i32 [ %.03949, %19 ], [ %23, %22 ], [ %.03949, %25 ]
  %29 = add i32 %.04048, 1
  %30 = add i32 %.03850, -1
  %31 = icmp eq i32 %30, 1
  br i1 %31, label %32, label %36

32:                                               ; preds = %28
  %33 = sext i32 %.2 to i64
  %34 = getelementptr i8, ptr %14, i64 %33
  %35 = getelementptr i8, ptr %34, i64 1
  store i8 0, ptr %35, align 1
  br label %43

36:                                               ; preds = %28
  %37 = icmp sgt i32 %.2, 1022
  br i1 %37, label %._crit_edge, label %38

38:                                               ; preds = %36
  %39 = add nsw i32 %.2, 1
  %40 = icmp slt i32 %39, %.142
  br i1 %40, label %.lr.ph, label %._crit_edge, !llvm.loop !76

._crit_edge:                                      ; preds = %38, %36, %10
  %.1 = phi i32 [ 0, %10 ], [ %.2, %36 ], [ %39, %38 ]
  %spec.store.select = tail call i32 @llvm.smax.i32(i32 %.1, i32 0)
  %41 = zext nneg i32 %spec.store.select to i64
  %42 = getelementptr i8, ptr %14, i64 %41
  store i8 0, ptr %42, align 1
  br label %43

43:                                               ; preds = %8, %._crit_edge, %32
  %.0 = phi ptr [ %14, %32 ], [ %14, %._crit_edge ], [ @.str.23, %8 ]
  ret ptr %.0
}